; Function Attrs: mustprogress uwtable
define dso_local void @_ZNK29cmLocalUnixMakefileGenerator326GetRelativeTargetDirectoryB5cxx11EPK17cmGeneratorTarget(ptr dead_on_unwind noalias writable sret(%"class.std::__cxx11::basic_string") align 8 %0, ptr noundef nonnull align 8 dereferenceable(1112) %1, ptr noundef %2) local_unnamed_addr #3 align 2 personality ptr @__gxx_personality_v0 {
  %4 = alloca [2 x %"struct.std::pair.1037"], align 8
  %5 = alloca %"class.std::__cxx11::basic_string", align 8
  %6 = getelementptr inbounds i8, ptr %1, i64 896
  %7 = load ptr, ptr %1, align 8
  %8 = getelementptr inbounds i8, ptr %7, i64 128
  %9 = load ptr, ptr %8, align 8
  call void %9(ptr dead_on_unwind nonnull writable sret(%"class.std::__cxx11::basic_string") align 8 %5, ptr noundef nonnull align 8 dereferenceable(1112) %1, ptr noundef %2)
  call void @llvm.lifetime.start.p0(i64 48, ptr nonnull %4)
  %10 = call { i64, ptr } @_ZNKSt7__cxx1112basic_stringIcSt11char_traitsIcESaIcEEcvSt17basic_string_viewIcS2_EEv(ptr noundef nonnull align 8 dereferenceable(32) %6) #20, !noalias !327
  %11 = extractvalue { i64, ptr } %10, 0
  %12 = extractvalue { i64, ptr } %10, 1
  store i64 %11, ptr %4, align 8, !alias.scope !330, !noalias !327
  %.sroa.2.0..sroa_idx.i.i = getelementptr inbounds i8, ptr %4, i64 8
  store ptr %12, ptr %.sroa.2.0..sroa_idx.i.i, align 8, !alias.scope !330, !noalias !327
  %13 = getelementptr inbounds i8, ptr %4, i64 16
  store ptr null, ptr %13, align 8, !alias.scope !330, !noalias !327
  %14 = getelementptr inbounds i8, ptr %4, i64 24
  call void @llvm.experimental.noalias.scope.decl(metadata !333)
  %15 = call { i64, ptr } @_ZNKSt7__cxx1112basic_stringIcSt11char_traitsIcESaIcEEcvSt17basic_string_viewIcS2_EEv(ptr noundef nonnull align 8 dereferenceable(32) %5) #20, !noalias !336
  %16 = extractvalue { i64, ptr } %15, 0
  %17 = extractvalue { i64, ptr } %15, 1
  store i64 %16, ptr %14, align 8, !alias.scope !333, !noalias !327
  %.sroa.2.0..sroa_idx.i6.i = getelementptr inbounds i8, ptr %4, i64 32
  store ptr %17, ptr %.sroa.2.0..sroa_idx.i6.i, align 8, !alias.scope !333, !noalias !327
  %18 = getelementptr inbounds i8, ptr %4, i64 40
  store ptr %5, ptr %18, align 8, !alias.scope !333, !noalias !327
  invoke void @_Z10cmCatViewsSt16initializer_listISt4pairISt17basic_string_viewIcSt11char_traitsIcEEPNSt7__cxx1112basic_stringIcS3_SaIcEEEEE(ptr dead_on_unwind writable sret(%"class.std::__cxx11::basic_string") align 8 %0, ptr nonnull %4, i64 2)
          to label %19 unwind label %20

19:                                               ; preds = %3
  call void @llvm.lifetime.end.p0(i64 48, ptr nonnull %4)
  call void @_ZNSt7__cxx1112basic_stringIcSt11char_traitsIcESaIcEED1Ev(ptr noundef nonnull align 8 dereferenceable(32) %5) #20
  ret void

20:                                               ; preds = %3
  %21 = landingpad { ptr, i32 }
          cleanup
  call void @_ZNSt7__cxx1112basic_stringIcSt11char_traitsIcESaIcEED1Ev(ptr noundef nonnull align 8 dereferenceable(32) %5) #20
  resume { ptr, i32 } %21
}